target datalayout = "e-m:e-p270:32:32-p271:32:32-p272:64:64-i64:64-i128:128-f80:128-n8:16:32:64-S128"
target triple = "x86_64-pc-linux-gnu"

%"class.dmlc::Registry" = type { %"class.std::vector", %"class.std::vector.0", %"class.std::map", %"class.std::mutex" }
%"class.std::vector" = type { %"struct.std::_Vector_base" }
%"struct.std::_Vector_base" = type { %"struct.std::_Vector_base<xgboost::data::SparsePageFormatReg<xgboost::SparsePage> *, std::allocator<xgboost::data::SparsePageFormatReg<xgboost::SparsePage> *>>::_Vector_impl" }
%"struct.std::_Vector_base<xgboost::data::SparsePageFormatReg<xgboost::SparsePage> *, std::allocator<xgboost::data::SparsePageFormatReg<xgboost::SparsePage> *>>::_Vector_impl" = type { %"struct.std::_Vector_base<xgboost::data::SparsePageFormatReg<xgboost::SparsePage> *, std::allocator<xgboost::data::SparsePageFormatReg<xgboost::SparsePage> *>>::_Vector_impl_data" }
%"struct.std::_Vector_base<xgboost::data::SparsePageFormatReg<xgboost::SparsePage> *, std::allocator<xgboost::data::SparsePageFormatReg<xgboost::SparsePage> *>>::_Vector_impl_data" = type { ptr, ptr, ptr }
%"class.std::vector.0" = type { %"struct.std::_Vector_base.1" }
%"struct.std::_Vector_base.1" = type { %"struct.std::_Vector_base<const xgboost::data::SparsePageFormatReg<xgboost::SparsePage> *, std::allocator<const xgboost::data::SparsePageFormatReg<xgboost::SparsePage> *>>::_Vector_impl" }
%"struct.std::_Vector_base<const xgboost::data::SparsePageFormatReg<xgboost::SparsePage> *, std::allocator<const xgboost::data::SparsePageFormatReg<xgboost::SparsePage> *>>::_Vector_impl" = type { %"struct.std::_Vector_base<const xgboost::data::SparsePageFormatReg<xgboost::SparsePage> *, std::allocator<const xgboost::data::SparsePageFormatReg<xgboost::SparsePage> *>>::_Vector_impl_data" }
%"struct.std::_Vector_base<const xgboost::data::SparsePageFormatReg<xgboost::SparsePage> *, std::allocator<const xgboost::data::SparsePageFormatReg<xgboost::SparsePage> *>>::_Vector_impl_data" = type { ptr, ptr, ptr }
%"class.std::map" = type { %"class.std::_Rb_tree" }
%"class.std::_Rb_tree" = type { %"struct.std::_Rb_tree<std::__cxx11::basic_string<char>, std::pair<const std::__cxx11::basic_string<char>, xgboost::data::SparsePageFormatReg<xgboost::SparsePage> *>, std::_Select1st<std::pair<const std::__cxx11::basic_string<char>, xgboost::data::SparsePageFormatReg<xgboost::SparsePage> *>>, std::less<std::__cxx11::basic_string<char>>>::_Rb_tree_impl" }
%"struct.std::_Rb_tree<std::__cxx11::basic_string<char>, std::pair<const std::__cxx11::basic_string<char>, xgboost::data::SparsePageFormatReg<xgboost::SparsePage> *>, std::_Select1st<std::pair<const std::__cxx11::basic_string<char>, xgboost::data::SparsePageFormatReg<xgboost::SparsePage> *>>, std::less<std::__cxx11::basic_string<char>>>::_Rb_tree_impl" = type { [8 x i8], %"struct.std::_Rb_tree_header" }
%"struct.std::_Rb_tree_header" = type { %"struct.std::_Rb_tree_node_base", i64 }
%"struct.std::_Rb_tree_node_base" = type { i32, ptr, ptr, ptr }
%"class.std::mutex" = type { %"class.std::__mutex_base" }
%"class.std::__mutex_base" = type { %union.pthread_mutex_t }
%union.pthread_mutex_t = type { %struct.__pthread_mutex_s }
%struct.__pthread_mutex_s = type { i32, i32, i32, i32, i32, i16, i16, %struct.__pthread_internal_list }
%struct.__pthread_internal_list = type { ptr, ptr }

@__dso_handle = external hidden global i8
@_ZZN4dmlc8RegistryIN7xgboost4data19SparsePageFormatRegINS1_10SparsePageEEEE3GetEvE4inst = internal global %"class.dmlc::Registry" zeroinitializer, align 8
@_ZGVZN4dmlc8RegistryIN7xgboost4data19SparsePageFormatRegINS1_10SparsePageEEEE3GetEvE4inst = internal global i64 0, align 8

; Function Attrs: noinline noreturn nounwind uwtable
define linkonce_odr hidden void @__clang_call_terminate(ptr noundef %0) #14 comdat {
  %2 = call ptr @__cxa_begin_catch(ptr %0) #3
  call void @_ZSt9terminatev() #28
  unreachable
}

; Function Attrs: mustprogress nounwind uwtable
define linkonce_odr void @_ZNSt15_Rb_tree_header8_M_resetEv(ptr noundef nonnull align 8 dereferenceable(40) %0) #6 comdat align 2 {
  %2 = alloca ptr, align 8
  store ptr %0, ptr %2, align 8, !tbaa !1057
  %3 = load ptr, ptr %2, align 8
  %4 = getelementptr inbounds nuw %"struct.std::_Rb_tree_header", ptr %3, i32 0, i32 0
  %5 = getelementptr inbounds nuw %"struct.std::_Rb_tree_node_base", ptr %4, i32 0, i32 1
  store ptr null, ptr %5, align 8, !tbaa !1065
  %6 = getelementptr inbounds nuw %"struct.std::_Rb_tree_header", ptr %3, i32 0, i32 0
  %7 = getelementptr inbounds nuw %"struct.std::_Rb_tree_header", ptr %3, i32 0, i32 0
  %8 = getelementptr inbounds nuw %"struct.std::_Rb_tree_node_base", ptr %7, i32 0, i32 2
  store ptr %6, ptr %8, align 8, !tbaa !1066
  %9 = getelementptr inbounds nuw %"struct.std::_Rb_tree_header", ptr %3, i32 0, i32 0
  %10 = getelementptr inbounds nuw %"struct.std::_Rb_tree_header", ptr %3, i32 0, i32 0
  %11 = getelementptr inbounds nuw %"struct.std::_Rb_tree_node_base", ptr %10, i32 0, i32 3
  store ptr %9, ptr %11, align 8, !tbaa !1067
  %12 = getelementptr inbounds nuw %"struct.std::_Rb_tree_header", ptr %3, i32 0, i32 1
  store i64 0, ptr %12, align 8, !tbaa !1068
  ret void
}

; Function Attrs: mustprogress nounwind uwtable
define linkonce_odr void @_ZNSt15__new_allocatorISt13_Rb_tree_nodeISt4pairIKNSt7__cxx1112basic_stringIcSt11char_traitsIcESaIcEEEPN7xgboost4data19SparsePageFormatRegINS9_10SparsePageEEEEEEC2Ev(ptr noundef nonnull align 1 dereferenceable(1) %0) unnamed_addr #6 comdat align 2 {
  %2 = alloca ptr, align 8
  store ptr %0, ptr %2, align 8, !tbaa !1175
  ret void
}

; Function Attrs: mustprogress nounwind uwtable
define linkonce_odr void @_ZNSt15__new_allocatorIPKN7xgboost4data19SparsePageFormatRegINS0_10SparsePageEEEEC2Ev(ptr noundef nonnull align 1 dereferenceable(1) %0) unnamed_addr #6 comdat align 2 {
  %2 = alloca ptr, align 8
  store ptr %0, ptr %2, align 8, !tbaa !1165
  ret void
}

; Function Attrs: mustprogress nounwind uwtable
define linkonce_odr void @_ZNSt15__new_allocatorIPN7xgboost4data19SparsePageFormatRegINS0_10SparsePageEEEEC2Ev(ptr noundef nonnull align 1 dereferenceable(1) %0) unnamed_addr #6 comdat align 2 {
  %2 = alloca ptr, align 8
  store ptr %0, ptr %2, align 8, !tbaa !1151
  ret void
}

; Function Attrs: mustprogress nounwind uwtable
define linkonce_odr void @_ZNSt15_Rb_tree_headerC2Ev(ptr noundef nonnull align 8 dereferenceable(40) %0) unnamed_addr #6 comdat align 2 personality ptr @__gxx_personality_v0 {
  %2 = alloca ptr, align 8
  store ptr %0, ptr %2, align 8, !tbaa !1057
  %3 = load ptr, ptr %2, align 8
  %4 = getelementptr inbounds nuw %"struct.std::_Rb_tree_header", ptr %3, i32 0, i32 0
  %5 = getelementptr inbounds nuw %"struct.std::_Rb_tree_node_base", ptr %4, i32 0, i32 0
  store i32 0, ptr %5, align 8, !tbaa !1059
  invoke void @_ZNSt15_Rb_tree_header8_M_resetEv(ptr noundef nonnull align 8 dereferenceable(40) %3)
          to label %6 unwind label %7

6:                                                ; preds = %1
  ret void

7:                                                ; preds = %1
  %8 = landingpad { ptr, i32 }
          catch ptr null
  %9 = extractvalue { ptr, i32 } %8, 0
  call void @__clang_call_terminate(ptr %9) #28
  unreachable
}

; Function Attrs: mustprogress nounwind uwtable
define linkonce_odr void @_ZNSt20_Rb_tree_key_compareISt4lessINSt7__cxx1112basic_stringIcSt11char_traitsIcESaIcEEEEEC2Ev(ptr noundef nonnull align 1 dereferenceable(1) %0) unnamed_addr #6 comdat align 2 {
  %2 = alloca ptr, align 8
  store ptr %0, ptr %2, align 8, !tbaa !1173
  ret void
}

; Function Attrs: mustprogress nounwind uwtable
define linkonce_odr void @_ZNSaISt13_Rb_tree_nodeISt4pairIKNSt7__cxx1112basic_stringIcSt11char_traitsIcESaIcEEEPN7xgboost4data19SparsePageFormatRegINS8_10SparsePageEEEEEEC2Ev(ptr noundef nonnull align 1 dereferenceable(1) %0) unnamed_addr #6 comdat align 2 {
  %2 = alloca ptr, align 8
  store ptr %0, ptr %2, align 8, !tbaa !1171
  %3 = load ptr, ptr %2, align 8
  call void @_ZNSt15__new_allocatorISt13_Rb_tree_nodeISt4pairIKNSt7__cxx1112basic_stringIcSt11char_traitsIcESaIcEEEPN7xgboost4data19SparsePageFormatRegINS9_10SparsePageEEEEEEC2Ev(ptr noundef nonnull align 1 dereferenceable(1) %3) #3
  ret void
}

; Function Attrs: mustprogress nounwind uwtable
define linkonce_odr void @_ZNSt12_Vector_baseIPKN7xgboost4data19SparsePageFormatRegINS0_10SparsePageEEESaIS6_EE17_Vector_impl_dataC2Ev(ptr noundef nonnull align 8 dereferenceable(24) %0) unnamed_addr #6 comdat align 2 {
  %2 = alloca ptr, align 8
  store ptr %0, ptr %2, align 8, !tbaa !1159
  %3 = load ptr, ptr %2, align 8
  %4 = getelementptr inbounds nuw %"struct.std::_Vector_base<const xgboost::data::SparsePageFormatReg<xgboost::SparsePage> *, std::allocator<const xgboost::data::SparsePageFormatReg<xgboost::SparsePage> *>>::_Vector_impl_data", ptr %3, i32 0, i32 0
  store ptr null, ptr %4, align 8, !tbaa !1161
  %5 = getelementptr inbounds nuw %"struct.std::_Vector_base<const xgboost::data::SparsePageFormatReg<xgboost::SparsePage> *, std::allocator<const xgboost::data::SparsePageFormatReg<xgboost::SparsePage> *>>::_Vector_impl_data", ptr %3, i32 0, i32 1
  store ptr null, ptr %5, align 8, !tbaa !1163
  %6 = getelementptr inbounds nuw %"struct.std::_Vector_base<const xgboost::data::SparsePageFormatReg<xgboost::SparsePage> *, std::allocator<const xgboost::data::SparsePageFormatReg<xgboost::SparsePage> *>>::_Vector_impl_data", ptr %3, i32 0, i32 2
  store ptr null, ptr %6, align 8, !tbaa !1164
  ret void
}

; Function Attrs: mustprogress nounwind uwtable
define linkonce_odr void @_ZNSaIPKN7xgboost4data19SparsePageFormatRegINS_10SparsePageEEEEC2Ev(ptr noundef nonnull align 1 dereferenceable(1) %0) unnamed_addr #6 comdat align 2 {
  %2 = alloca ptr, align 8
  store ptr %0, ptr %2, align 8, !tbaa !1157
  %3 = load ptr, ptr %2, align 8
  call void @_ZNSt15__new_allocatorIPKN7xgboost4data19SparsePageFormatRegINS0_10SparsePageEEEEC2Ev(ptr noundef nonnull align 1 dereferenceable(1) %3) #3
  ret void
}

; Function Attrs: mustprogress nounwind uwtable
define linkonce_odr void @_ZNSt12_Vector_baseIPN7xgboost4data19SparsePageFormatRegINS0_10SparsePageEEESaIS5_EE17_Vector_impl_dataC2Ev(ptr noundef nonnull align 8 dereferenceable(24) %0) unnamed_addr #6 comdat align 2 {
  %2 = alloca ptr, align 8
  store ptr %0, ptr %2, align 8, !tbaa !1144
  %3 = load ptr, ptr %2, align 8
  %4 = getelementptr inbounds nuw %"struct.std::_Vector_base<xgboost::data::SparsePageFormatReg<xgboost::SparsePage> *, std::allocator<xgboost::data::SparsePageFormatReg<xgboost::SparsePage> *>>::_Vector_impl_data", ptr %3, i32 0, i32 0
  store ptr null, ptr %4, align 8, !tbaa !1146
  %5 = getelementptr inbounds nuw %"struct.std::_Vector_base<xgboost::data::SparsePageFormatReg<xgboost::SparsePage> *, std::allocator<xgboost::data::SparsePageFormatReg<xgboost::SparsePage> *>>::_Vector_impl_data", ptr %3, i32 0, i32 1
  store ptr null, ptr %5, align 8, !tbaa !1149
  %6 = getelementptr inbounds nuw %"struct.std::_Vector_base<xgboost::data::SparsePageFormatReg<xgboost::SparsePage> *, std::allocator<xgboost::data::SparsePageFormatReg<xgboost::SparsePage> *>>::_Vector_impl_data", ptr %3, i32 0, i32 2
  store ptr null, ptr %6, align 8, !tbaa !1150
  ret void
}

; Function Attrs: mustprogress nounwind uwtable
define linkonce_odr void @_ZNSaIPN7xgboost4data19SparsePageFormatRegINS_10SparsePageEEEEC2Ev(ptr noundef nonnull align 1 dereferenceable(1) %0) unnamed_addr #6 comdat align 2 {
  %2 = alloca ptr, align 8
  store ptr %0, ptr %2, align 8, !tbaa !1142
  %3 = load ptr, ptr %2, align 8
  call void @_ZNSt15__new_allocatorIPN7xgboost4data19SparsePageFormatRegINS0_10SparsePageEEEEC2Ev(ptr noundef nonnull align 1 dereferenceable(1) %3) #3
  ret void
}

; Function Attrs: mustprogress nounwind uwtable
define linkonce_odr void @_ZNSt8_Rb_treeINSt7__cxx1112basic_stringIcSt11char_traitsIcESaIcEEESt4pairIKS5_PN7xgboost4data19SparsePageFormatRegINS8_10SparsePageEEEESt10_Select1stISE_ESt4lessIS5_ESaISE_EE13_Rb_tree_implISI_Lb1EEC2Ev(ptr noundef nonnull align 8 dereferenceable(48) %0) unnamed_addr #6 comdat align 2 {
  %2 = alloca ptr, align 8
  store ptr %0, ptr %2, align 8, !tbaa !1169
  %3 = load ptr, ptr %2, align 8
  call void @_ZNSaISt13_Rb_tree_nodeISt4pairIKNSt7__cxx1112basic_stringIcSt11char_traitsIcESaIcEEEPN7xgboost4data19SparsePageFormatRegINS8_10SparsePageEEEEEEC2Ev(ptr noundef nonnull align 1 dereferenceable(1) %3) #3
  call void @_ZNSt20_Rb_tree_key_compareISt4lessINSt7__cxx1112basic_stringIcSt11char_traitsIcESaIcEEEEEC2Ev(ptr noundef nonnull align 1 dereferenceable(1) %3) #3
  %4 = getelementptr inbounds i8, ptr %3, i64 8
  call void @_ZNSt15_Rb_tree_headerC2Ev(ptr noundef nonnull align 8 dereferenceable(40) %4) #3
  ret void
}

; Function Attrs: mustprogress nounwind uwtable
define linkonce_odr void @_ZNSt12_Vector_baseIPKN7xgboost4data19SparsePageFormatRegINS0_10SparsePageEEESaIS6_EE12_Vector_implC2Ev(ptr noundef nonnull align 8 dereferenceable(24) %0) unnamed_addr #6 comdat align 2 {
  %2 = alloca ptr, align 8
  store ptr %0, ptr %2, align 8, !tbaa !1155
  %3 = load ptr, ptr %2, align 8
  call void @_ZNSaIPKN7xgboost4data19SparsePageFormatRegINS_10SparsePageEEEEC2Ev(ptr noundef nonnull align 1 dereferenceable(1) %3) #3
  call void @_ZNSt12_Vector_baseIPKN7xgboost4data19SparsePageFormatRegINS0_10SparsePageEEESaIS6_EE17_Vector_impl_dataC2Ev(ptr noundef nonnull align 8 dereferenceable(24) %3) #3
  ret void
}

; Function Attrs: mustprogress nounwind uwtable
define linkonce_odr void @_ZNSt12_Vector_baseIPN7xgboost4data19SparsePageFormatRegINS0_10SparsePageEEESaIS5_EE12_Vector_implC2Ev(ptr noundef nonnull align 8 dereferenceable(24) %0) unnamed_addr #6 comdat align 2 {
  %2 = alloca ptr, align 8
  store ptr %0, ptr %2, align 8, !tbaa !1140
  %3 = load ptr, ptr %2, align 8
  call void @_ZNSaIPN7xgboost4data19SparsePageFormatRegINS_10SparsePageEEEEC2Ev(ptr noundef nonnull align 1 dereferenceable(1) %3) #3
  call void @_ZNSt12_Vector_baseIPN7xgboost4data19SparsePageFormatRegINS0_10SparsePageEEESaIS5_EE17_Vector_impl_dataC2Ev(ptr noundef nonnull align 8 dereferenceable(24) %3) #3
  ret void
}

; Function Attrs: mustprogress nounwind uwtable
define linkonce_odr void @_ZNSt12__mutex_baseC2Ev(ptr noundef nonnull align 8 dereferenceable(40) %0) unnamed_addr #6 comdat align 2 {
  %2 = alloca ptr, align 8
  store ptr %0, ptr %2, align 8, !tbaa !612
  %3 = load ptr, ptr %2, align 8
  %4 = getelementptr inbounds nuw %"class.std::__mutex_base", ptr %3, i32 0, i32 0
  call void @llvm.memset.p0.i64(ptr align 8 %4, i8 0, i64 40, i1 false)
  %5 = getelementptr inbounds nuw %struct.__pthread_mutex_s, ptr %4, i32 0, i32 4
  store i32 0, ptr %5, align 8, !tbaa !614
  ret void
}

; Function Attrs: mustprogress nounwind uwtable
define linkonce_odr void @_ZNSt8_Rb_treeINSt7__cxx1112basic_stringIcSt11char_traitsIcESaIcEEESt4pairIKS5_PN7xgboost4data19SparsePageFormatRegINS8_10SparsePageEEEESt10_Select1stISE_ESt4lessIS5_ESaISE_EEC2Ev(ptr noundef nonnull align 8 dereferenceable(48) %0) unnamed_addr #6 comdat align 2 {
  %2 = alloca ptr, align 8
  store ptr %0, ptr %2, align 8, !tbaa !1167
  %3 = load ptr, ptr %2, align 8
  %4 = getelementptr inbounds nuw %"class.std::_Rb_tree", ptr %3, i32 0, i32 0
  call void @_ZNSt8_Rb_treeINSt7__cxx1112basic_stringIcSt11char_traitsIcESaIcEEESt4pairIKS5_PN7xgboost4data19SparsePageFormatRegINS8_10SparsePageEEEESt10_Select1stISE_ESt4lessIS5_ESaISE_EE13_Rb_tree_implISI_Lb1EEC2Ev(ptr noundef nonnull align 8 dereferenceable(48) %4) #3
  ret void
}

; Function Attrs: mustprogress nounwind uwtable
define linkonce_odr void @_ZNSt12_Vector_baseIPKN7xgboost4data19SparsePageFormatRegINS0_10SparsePageEEESaIS6_EEC2Ev(ptr noundef nonnull align 8 dereferenceable(24) %0) unnamed_addr #6 comdat align 2 {
  %2 = alloca ptr, align 8
  store ptr %0, ptr %2, align 8, !tbaa !1153
  %3 = load ptr, ptr %2, align 8
  %4 = getelementptr inbounds nuw %"struct.std::_Vector_base.1", ptr %3, i32 0, i32 0
  call void @_ZNSt12_Vector_baseIPKN7xgboost4data19SparsePageFormatRegINS0_10SparsePageEEESaIS6_EE12_Vector_implC2Ev(ptr noundef nonnull align 8 dereferenceable(24) %4) #3
  ret void
}

; Function Attrs: mustprogress nounwind uwtable
define linkonce_odr void @_ZNSt12_Vector_baseIPN7xgboost4data19SparsePageFormatRegINS0_10SparsePageEEESaIS5_EEC2Ev(ptr noundef nonnull align 8 dereferenceable(24) %0) unnamed_addr #6 comdat align 2 {
  %2 = alloca ptr, align 8
  store ptr %0, ptr %2, align 8, !tbaa !1138
  %3 = load ptr, ptr %2, align 8
  %4 = getelementptr inbounds nuw %"struct.std::_Vector_base", ptr %3, i32 0, i32 0
  call void @_ZNSt12_Vector_baseIPN7xgboost4data19SparsePageFormatRegINS0_10SparsePageEEESaIS5_EE12_Vector_implC2Ev(ptr noundef nonnull align 8 dereferenceable(24) %4) #3
  ret void
}

; Function Attrs: mustprogress nounwind uwtable
define linkonce_odr void @_ZNSt5mutexC2Ev(ptr noundef nonnull align 8 dereferenceable(40) %0) unnamed_addr #6 comdat align 2 {
  %2 = alloca ptr, align 8
  store ptr %0, ptr %2, align 8, !tbaa !610
  %3 = load ptr, ptr %2, align 8
  call void @_ZNSt12__mutex_baseC2Ev(ptr noundef nonnull align 8 dereferenceable(40) %3) #3
  ret void
}

; Function Attrs: mustprogress nounwind uwtable
define linkonce_odr void @_ZNSt3mapINSt7__cxx1112basic_stringIcSt11char_traitsIcESaIcEEEPN7xgboost4data19SparsePageFormatRegINS6_10SparsePageEEESt4lessIS5_ESaISt4pairIKS5_SB_EEEC2Ev(ptr noundef nonnull align 8 dereferenceable(48) %0) unnamed_addr #6 comdat align 2 {
  %2 = alloca ptr, align 8
  store ptr %0, ptr %2, align 8, !tbaa !1136
  %3 = load ptr, ptr %2, align 8
  %4 = getelementptr inbounds nuw %"class.std::map", ptr %3, i32 0, i32 0
  call void @_ZNSt8_Rb_treeINSt7__cxx1112basic_stringIcSt11char_traitsIcESaIcEEESt4pairIKS5_PN7xgboost4data19SparsePageFormatRegINS8_10SparsePageEEEESt10_Select1stISE_ESt4lessIS5_ESaISE_EEC2Ev(ptr noundef nonnull align 8 dereferenceable(48) %4) #3
  ret void
}

; Function Attrs: mustprogress nounwind uwtable
define linkonce_odr void @_ZNSt6vectorIPKN7xgboost4data19SparsePageFormatRegINS0_10SparsePageEEESaIS6_EEC2Ev(ptr noundef nonnull align 8 dereferenceable(24) %0) unnamed_addr #6 comdat align 2 {
  %2 = alloca ptr, align 8
  store ptr %0, ptr %2, align 8, !tbaa !1134
  %3 = load ptr, ptr %2, align 8
  call void @_ZNSt12_Vector_baseIPKN7xgboost4data19SparsePageFormatRegINS0_10SparsePageEEESaIS6_EEC2Ev(ptr noundef nonnull align 8 dereferenceable(24) %3) #3
  ret void
}

; Function Attrs: mustprogress nounwind uwtable
define linkonce_odr void @_ZNSt6vectorIPN7xgboost4data19SparsePageFormatRegINS0_10SparsePageEEESaIS5_EEC2Ev(ptr noundef nonnull align 8 dereferenceable(24) %0) unnamed_addr #6 comdat align 2 {
  %2 = alloca ptr, align 8
  store ptr %0, ptr %2, align 8, !tbaa !1132
  %3 = load ptr, ptr %2, align 8
  call void @_ZNSt12_Vector_baseIPN7xgboost4data19SparsePageFormatRegINS0_10SparsePageEEESaIS5_EEC2Ev(ptr noundef nonnull align 8 dereferenceable(24) %3) #3
  ret void
}

; Function Attrs: mustprogress nounwind uwtable
define linkonce_odr void @_ZN4dmlc8RegistryIN7xgboost4data19SparsePageFormatRegINS1_10SparsePageEEEEC2Ev(ptr noundef nonnull align 8 dereferenceable(136) %0) unnamed_addr #6 comdat align 2 {
  %2 = alloca ptr, align 8
  store ptr %0, ptr %2, align 8, !tbaa !4
  %3 = load ptr, ptr %2, align 8
  %4 = getelementptr inbounds nuw %"class.dmlc::Registry", ptr %3, i32 0, i32 0
  call void @_ZNSt6vectorIPN7xgboost4data19SparsePageFormatRegINS0_10SparsePageEEESaIS5_EEC2Ev(ptr noundef nonnull align 8 dereferenceable(24) %4) #3
  %5 = getelementptr inbounds nuw %"class.dmlc::Registry", ptr %3, i32 0, i32 1
  call void @_ZNSt6vectorIPKN7xgboost4data19SparsePageFormatRegINS0_10SparsePageEEESaIS6_EEC2Ev(ptr noundef nonnull align 8 dereferenceable(24) %5) #3
  %6 = getelementptr inbounds nuw %"class.dmlc::Registry", ptr %3, i32 0, i32 2
  call void @_ZNSt3mapINSt7__cxx1112basic_stringIcSt11char_traitsIcESaIcEEEPN7xgboost4data19SparsePageFormatRegINS6_10SparsePageEEESt4lessIS5_ESaISt4pairIKS5_SB_EEEC2Ev(ptr noundef nonnull align 8 dereferenceable(48) %6) #3
  %7 = getelementptr inbounds nuw %"class.dmlc::Registry", ptr %3, i32 0, i32 3
  call void @_ZNSt5mutexC2Ev(ptr noundef nonnull align 8 dereferenceable(40) %7) #3
  ret void
}

; Function Attrs: mustprogress uwtable
define noundef ptr @_ZN4dmlc8RegistryIN7xgboost4data19SparsePageFormatRegINS1_10SparsePageEEEE3GetEv() #5 align 2 personality ptr @__gxx_personality_v0 {
  %1 = alloca ptr, align 8
  %2 = alloca i32, align 4
  %3 = load atomic i8, ptr @_ZGVZN4dmlc8RegistryIN7xgboost4data19SparsePageFormatRegINS1_10SparsePageEEEE3GetEvE4inst acquire, align 8
  %4 = icmp eq i8 %3, 0
  br i1 %4, label %5, label %11, !prof !3

5:                                                ; preds = %0
  %6 = call i32 @__cxa_guard_acquire(ptr @_ZGVZN4dmlc8RegistryIN7xgboost4data19SparsePageFormatRegINS1_10SparsePageEEEE3GetEvE4inst) #3
  %7 = icmp ne i32 %6, 0
  br i1 %7, label %8, label %11

8:                                                ; preds = %5
  invoke void @_ZN4dmlc8RegistryIN7xgboost4data19SparsePageFormatRegINS1_10SparsePageEEEEC2Ev(ptr noundef nonnull align 8 dereferenceable(136) @_ZZN4dmlc8RegistryIN7xgboost4data19SparsePageFormatRegINS1_10SparsePageEEEE3GetEvE4inst)
          to label %9 unwind label %12

9:                                                ; preds = %8
  %10 = call i32 @__cxa_atexit(ptr @_ZN4dmlc8RegistryIN7xgboost4data19SparsePageFormatRegINS1_10SparsePageEEEED2Ev, ptr @_ZZN4dmlc8RegistryIN7xgboost4data19SparsePageFormatRegINS1_10SparsePageEEEE3GetEvE4inst, ptr @__dso_handle) #3
  call void @__cxa_guard_release(ptr @_ZGVZN4dmlc8RegistryIN7xgboost4data19SparsePageFormatRegINS1_10SparsePageEEEE3GetEvE4inst) #3
  br label %11

11:                                               ; preds = %9, %5, %0
  ret ptr @_ZZN4dmlc8RegistryIN7xgboost4data19SparsePageFormatRegINS1_10SparsePageEEEE3GetEvE4inst

12:                                               ; preds = %8
  %13 = landingpad { ptr, i32 }
          cleanup
  %14 = extractvalue { ptr, i32 } %13, 0
  store ptr %14, ptr %1, align 8
  %15 = extractvalue { ptr, i32 } %13, 1
  store i32 %15, ptr %2, align 4
  call void @__cxa_guard_abort(ptr @_ZGVZN4dmlc8RegistryIN7xgboost4data19SparsePageFormatRegINS1_10SparsePageEEEE3GetEvE4inst) #3
  br label %16

16:                                               ; preds = %12
  %17 = load ptr, ptr %1, align 8
  %18 = load i32, ptr %2, align 4
  %19 = insertvalue { ptr, i32 } poison, ptr %17, 0
  %20 = insertvalue { ptr, i32 } %19, i32 %18, 1
  resume { ptr, i32 } %20
}